target datalayout = "e-m:e-p270:32:32-p271:32:32-p272:64:64-i64:64-i128:128-f80:128-n8:16:32:64-S128"
target triple = "x86_64-pc-linux-gnu"

%struct.reassembly_table = type { ptr, ptr, ptr, ptr, ptr }
%struct.reassembly_table_functions = type { ptr, ptr, ptr, ptr, ptr, ptr }

@al_reassembly_table = internal global %struct.reassembly_table zeroinitializer, align 8
@addresses_reassembly_table_functions = external constant %struct.reassembly_table_functions, align 8
@.str.451 = private unnamed_addr constant [33 x i8] c"Distributed Network Protocol 3.0\00", align 1
@.str.452 = private unnamed_addr constant [8 x i8] c"DNP 3.0\00", align 1
@.str.453 = private unnamed_addr constant [5 x i8] c"dnp3\00", align 1
@proto_dnp3 = internal global i32 0, align 4
@.str.454 = private unnamed_addr constant [9 x i8] c"dnp3.tcp\00", align 1
@dnp3_tcp_handle = internal global ptr null, align 8
@.str.455 = private unnamed_addr constant [9 x i8] c"dnp3.udp\00", align 1
@dnp3_udp_handle = internal global ptr null, align 8
@.str.456 = private unnamed_addr constant [11 x i8] c"heuristics\00", align 1
@.str.457 = private unnamed_addr constant [10 x i8] c"desegment\00", align 1
@.str.458 = private unnamed_addr constant [56 x i8] c"Reassemble DNP3 messages spanning multiple TCP segments\00", align 1
@.str.459 = private unnamed_addr constant [205 x i8] c"Whether the DNP3 dissector should reassemble messages spanning multiple TCP segments. To use this option, you must also enable \22Allow subdissectors to reassemble TCP streams\22 in the TCP protocol settings.\00", align 1
@dnp3_desegment = internal global i8 1, align 1
@dnp3_tap = internal global i32 0, align 4

; Function Attrs: null_pointer_is_valid sspstrong uwtable
define hidden void @proto_register_dnp3() #0 {
  %1 = alloca ptr, align 8
  %2 = alloca ptr, align 8
  call void @llvm.lifetime.start.p0(i64 8, ptr %1) #11
  call void @llvm.lifetime.start.p0(i64 8, ptr %2) #11
  call void @reassembly_table_register(ptr noundef @al_reassembly_table, ptr noundef @addresses_reassembly_table_functions)
  %3 = call i32 @proto_register_protocol(ptr noundef @.str.451, ptr noundef @.str.452, ptr noundef @.str.453)
  store i32 %3, ptr @proto_dnp3, align 4
  %4 = load i32, ptr @proto_dnp3, align 4
  %5 = call ptr @register_dissector(ptr noundef @.str.454, ptr noundef @dissect_dnp3_tcp, i32 noundef %4)
  store ptr %5, ptr @dnp3_tcp_handle, align 8
  %6 = load i32, ptr @proto_dnp3, align 4
  %7 = call ptr @register_dissector(ptr noundef @.str.455, ptr noundef @dissect_dnp3_udp, i32 noundef %6)
  store ptr %7, ptr @dnp3_udp_handle, align 8
  %8 = load i32, ptr @proto_dnp3, align 4
  call void @proto_register_field_array(i32 noundef %8, ptr noundef @proto_register_dnp3.hf, i32 noundef 231)
  call void @proto_register_subtree_array(ptr noundef @proto_register_dnp3.ett, i32 noundef 19)
  %9 = load i32, ptr @proto_dnp3, align 4
  %10 = call ptr @expert_register_protocol(i32 noundef %9)
  store ptr %10, ptr %2, align 8
  %11 = load ptr, ptr %2, align 8
  call void @expert_register_field_array(ptr noundef %11, ptr noundef @proto_register_dnp3.ei, i32 noundef 8)
  %12 = load i32, ptr @proto_dnp3, align 4
  %13 = call ptr @prefs_register_protocol(i32 noundef %12, ptr noundef null)
  store ptr %13, ptr %1, align 8
  %14 = load ptr, ptr %1, align 8
  call void @prefs_register_obsolete_preference(ptr noundef %14, ptr noundef @.str.456)
  %15 = load ptr, ptr %1, align 8
  call void @prefs_register_bool_preference(ptr noundef %15, ptr noundef @.str.457, ptr noundef @.str.458, ptr noundef @.str.459, ptr noundef @dnp3_desegment)
  %16 = call i32 @register_tap(ptr noundef @.str.453)
  store i32 %16, ptr @dnp3_tap, align 4
  %17 = load i32, ptr @proto_dnp3, align 4
  call void @register_conversation_table(i32 noundef %17, i1 noundef zeroext true, ptr noundef @dnp3_conversation_packet, ptr noundef @dnp3_endpoint_packet)
  call void @llvm.lifetime.end.p0(i64 8, ptr %2) #11
  call void @llvm.lifetime.end.p0(i64 8, ptr %1) #11
  ret void
}