; Function Attrs: null_pointer_is_valid sspstrong uwtable
define hidden void @proto_register_dnp3() local_unnamed_addr #0 {
  tail call void @reassembly_table_register(ptr noundef nonnull @al_reassembly_table, ptr noundef nonnull @addresses_reassembly_table_functions)
  %1 = tail call i32 @proto_register_protocol(ptr noundef nonnull @.str.451, ptr noundef nonnull @.str.452, ptr noundef nonnull @.str.453)
  store i32 %1, ptr @proto_dnp3, align 4
  %2 = tail call ptr @register_dissector(ptr noundef nonnull @.str.454, ptr noundef nonnull @dissect_dnp3_tcp, i32 noundef %1)
  store ptr %2, ptr @dnp3_tcp_handle, align 8
  %3 = load i32, ptr @proto_dnp3, align 4
  %4 = tail call ptr @register_dissector(ptr noundef nonnull @.str.455, ptr noundef nonnull @dissect_dnp3_udp, i32 noundef %3)
  store ptr %4, ptr @dnp3_udp_handle, align 8
  %5 = load i32, ptr @proto_dnp3, align 4
  tail call void @proto_register_field_array(i32 noundef %5, ptr noundef nonnull @proto_register_dnp3.hf, i32 noundef 231)
  tail call void @proto_register_subtree_array(ptr noundef nonnull @proto_register_dnp3.ett, i32 noundef 19)
  %6 = load i32, ptr @proto_dnp3, align 4
  %7 = tail call ptr @expert_register_protocol(i32 noundef %6)
  tail call void @expert_register_field_array(ptr noundef %7, ptr noundef nonnull @proto_register_dnp3.ei, i32 noundef 8)
  %8 = load i32, ptr @proto_dnp3, align 4
  %9 = tail call ptr @prefs_register_protocol(i32 noundef %8, ptr noundef null)
  tail call void @prefs_register_obsolete_preference(ptr noundef %9, ptr noundef nonnull @.str.456)
  tail call void @prefs_register_bool_preference(ptr noundef %9, ptr noundef nonnull @.str.457, ptr noundef nonnull @.str.458, ptr noundef nonnull @.str.459, ptr noundef nonnull @dnp3_desegment)
  %10 = tail call i32 @register_tap(ptr noundef nonnull @.str.453)
  store i32 %10, ptr @dnp3_tap, align 4
  %11 = load i32, ptr @proto_dnp3, align 4
  tail call void @register_conversation_table(i32 noundef %11, i1 noundef zeroext true, ptr noundef nonnull @dnp3_conversation_packet, ptr noundef nonnull @dnp3_endpoint_packet)
  ret void
}